; Function Attrs: nounwind sspstrong uwtable
define hidden void @pm_node_list_prepend(ptr noundef captures(none) %0, ptr noundef %1) local_unnamed_addr #0 {
  %3 = load i64, ptr %0, align 8, !tbaa !7
  %4 = add i64 %3, 1
  %5 = icmp eq i64 %3, -1
  br i1 %5, label %pm_node_list_grow.exit.thread, label %6

6:                                                ; preds = %2
  %7 = getelementptr inbounds nuw i8, ptr %0, i64 8
  %8 = load i64, ptr %7, align 8, !tbaa !14
  %9 = icmp ult i64 %4, %8
  br i1 %9, label %.pm_node_list_grow.exit_crit_edge, label %10

.pm_node_list_grow.exit_crit_edge:                ; preds = %6
  %.phi.trans.insert = getelementptr inbounds nuw i8, ptr %0, i64 16
  %.pre = load ptr, ptr %.phi.trans.insert, align 8, !tbaa !15
  br label %pm_node_list_grow.exit

10:                                               ; preds = %6
  %11 = icmp eq i64 %8, 0
  %12 = shl i64 %8, 1
  %spec.select.i = select i1 %11, i64 4, i64 %12
  %13 = icmp ult i64 %spec.select.i, %8
  br i1 %13, label %pm_node_list_grow.exit.thread, label %.preheader.i

.preheader.i:                                     ; preds = %10, %15
  %.025.i = phi i64 [ %17, %15 ], [ %spec.select.i, %10 ]
  %14 = icmp ugt i64 %4, %.025.i
  br i1 %14, label %15, label %18

15:                                               ; preds = %.preheader.i
  %16 = icmp sgt i64 %.025.i, -1
  %17 = shl nuw i64 %.025.i, 1
  br i1 %16, label %.preheader.i, label %pm_node_list_grow.exit.thread, !llvm.loop !16

18:                                               ; preds = %.preheader.i
  %19 = getelementptr inbounds nuw i8, ptr %0, i64 16
  %20 = load ptr, ptr %19, align 8, !tbaa !15
  %21 = shl i64 %.025.i, 3
  %22 = tail call ptr @realloc(ptr noundef %20, i64 noundef %21) #8
  %.not.i = icmp eq ptr %22, null
  br i1 %.not.i, label %pm_node_list_grow.exit.thread, label %23

23:                                               ; preds = %18
  store ptr %22, ptr %19, align 8, !tbaa !15
  store i64 %.025.i, ptr %7, align 8, !tbaa !14
  %.pre10 = load i64, ptr %0, align 8, !tbaa !7
  br label %pm_node_list_grow.exit

pm_node_list_grow.exit:                           ; preds = %.pm_node_list_grow.exit_crit_edge, %23
  %24 = phi i64 [ %3, %.pm_node_list_grow.exit_crit_edge ], [ %.pre10, %23 ]
  %25 = phi ptr [ %.pre, %.pm_node_list_grow.exit_crit_edge ], [ %22, %23 ]
  %26 = getelementptr inbounds nuw i8, ptr %0, i64 16
  %27 = getelementptr i8, ptr %25, i64 8
  %28 = shl i64 %24, 3
  tail call void @llvm.memmove.p0.p0.i64(ptr noundef nonnull align 1 %27, ptr noundef nonnull align 1 %25, i64 noundef %28, i1 noundef false) #9
  %29 = load ptr, ptr %26, align 8, !tbaa !15
  store ptr %1, ptr %29, align 8, !tbaa !18
  %30 = load i64, ptr %0, align 8, !tbaa !7
  %31 = add i64 %30, 1
  store i64 %31, ptr %0, align 8, !tbaa !7
  br label %pm_node_list_grow.exit.thread

pm_node_list_grow.exit.thread:                    ; preds = %15, %18, %10, %2, %pm_node_list_grow.exit
  ret void
}